target datalayout = "e-m:e-p270:32:32-p271:32:32-p272:64:64-i64:64-i128:128-f80:128-n8:16:32:64-S128"
target triple = "x86_64-pc-linux-gnu"

%struct.timeval = type { i64, i64 }

; Function Attrs: mustprogress nounwind uwtable
define dso_local noundef i64 @_ZN4V3Os9timeUsecsEv() #4 align 2 {
  %1 = alloca i64, align 8
  %2 = alloca %struct.timeval, align 8
  %3 = alloca i32, align 4
  call void @llvm.lifetime.start.p0(i64 16, ptr %2) #3
  %4 = call i32 @gettimeofday(ptr noundef %2, ptr noundef null) #3
  %5 = icmp slt i32 %4, 0
  br i1 %5, label %6, label %7

6:                                                ; preds = %0
  store i64 0, ptr %1, align 8
  store i32 1, ptr %3, align 4
  br label %14

7:                                                ; preds = %0
  %8 = getelementptr inbounds nuw %struct.timeval, ptr %2, i32 0, i32 0
  %9 = load i64, ptr %8, align 8, !tbaa !78
  %10 = mul i64 %9, 1000000
  %11 = getelementptr inbounds nuw %struct.timeval, ptr %2, i32 0, i32 1
  %12 = load i64, ptr %11, align 8, !tbaa !80
  %13 = add i64 %10, %12
  store i64 %13, ptr %1, align 8
  store i32 1, ptr %3, align 4
  br label %14

14:                                               ; preds = %7, %6
  call void @llvm.lifetime.end.p0(i64 16, ptr %2) #3
  %15 = load i64, ptr %1, align 8
  ret i64 %15
}