; Function Attrs: mustprogress nofree nounwind uwtable
define dso_local noundef i64 @_ZN4V3Os9timeUsecsEv() local_unnamed_addr #16 align 2 {
  %1 = alloca %struct.timeval, align 8
  call void @llvm.lifetime.start.p0(i64 16, ptr nonnull %1) #28
  %2 = call i32 @gettimeofday(ptr noundef nonnull %1, ptr noundef null) #28
  %3 = icmp slt i32 %2, 0
  br i1 %3, label %10, label %4

4:                                                ; preds = %0
  %5 = load i64, ptr %1, align 8, !tbaa !120
  %6 = mul i64 %5, 1000000
  %7 = getelementptr inbounds nuw i8, ptr %1, i64 8
  %8 = load i64, ptr %7, align 8, !tbaa !122
  %9 = add i64 %6, %8
  br label %10

10:                                               ; preds = %0, %4
  %.0 = phi i64 [ %9, %4 ], [ 0, %0 ]
  call void @llvm.lifetime.end.p0(i64 16, ptr nonnull %1) #28
  ret i64 %.0
}